
startup.bin: formato do arquivo binary
startup.bin
arquitetura: UNKNOWN!, sinalizações 0x00000000:

começar o endereço 0x00000000

Seções:
Idx Name          Tam.      VMA       LMA       File off  Algn
  0 .data         00000bd8  00000000  00000000  00000000  2**0
                  CONTENTS, ALLOC, LOAD, DATA
SYMBOL TABLE:
nenhum símbolo



Desmontagem da seção .data:

00000000 <.data>:
   0:	e59ff018 	ldr	pc, [pc, #24]	; 0x20
   4:	e59ff018 	ldr	pc, [pc, #24]	; 0x24
   8:	e59ff018 	ldr	pc, [pc, #24]	; 0x28
   c:	e59ff018 	ldr	pc, [pc, #24]	; 0x2c
  10:	e59ff018 	ldr	pc, [pc, #24]	; 0x30
  14:	e1a00000 	nop			; (mov r0, r0)
  18:	e59ff018 	ldr	pc, [pc, #24]	; 0x38
  1c:	e59ff018 	ldr	pc, [pc, #24]	; 0x3c
  20:	80000040 	andhi	r0, r0, r0, asr #32
  24:	4030ce24 	eorsmi	ip, r0, r4, lsr #28
  28:	4030ce28 	eorsmi	ip, r0, r8, lsr #28
  2c:	4030ce2c 	eorsmi	ip, r0, ip, lsr #28
  30:	4030ce30 	eorsmi	ip, r0, r0, lsr lr
  34:	e1a00000 	nop			; (mov r0, r0)
  38:	4030ce38 	eorsmi	ip, r0, r8, lsr lr
  3c:	4030ce3c 	eorsmi	ip, r0, ip, lsr lr
  40:	eb00017a 	bl	0x630
  44:	e10f0000 	mrs	r0, CPSR
  48:	e3c0001f 	bic	r0, r0, #31
  4c:	e3800013 	orr	r0, r0, #19
  50:	e38000c0 	orr	r0, r0, #192	; 0xc0
  54:	e129f000 	msr	CPSR_fc, r0
  58:	e3a000d3 	mov	r0, #211	; 0xd3
  5c:	e121f000 	msr	CPSR_c, r0
  60:	e59fd1d4 	ldr	sp, [pc, #468]	; 0x23c
  64:	e3a000d2 	mov	r0, #210	; 0xd2
  68:	e121f000 	msr	CPSR_c, r0
  6c:	e59fd1cc 	ldr	sp, [pc, #460]	; 0x240
  70:	e3a000d1 	mov	r0, #209	; 0xd1
  74:	e121f000 	msr	CPSR_c, r0
  78:	e59fd1c4 	ldr	sp, [pc, #452]	; 0x244
  7c:	e3a000db 	mov	r0, #219	; 0xdb
  80:	e121f000 	msr	CPSR_c, r0
  84:	e59fd1bc 	ldr	sp, [pc, #444]	; 0x248
  88:	e3a000d7 	mov	r0, #215	; 0xd7
  8c:	e121f000 	msr	CPSR_c, r0
  90:	e59fd1b4 	ldr	sp, [pc, #436]	; 0x24c
  94:	e3a000df 	mov	r0, #223	; 0xdf
  98:	e121f000 	msr	CPSR_c, r0
  9c:	e59fd1ac 	ldr	sp, [pc, #428]	; 0x250
  a0:	e3a00010 	mov	r0, #16
  a4:	e121f000 	msr	CPSR_c, r0
  a8:	e59fd1a4 	ldr	sp, [pc, #420]	; 0x254
  ac:	e59f01a4 	ldr	r0, [pc, #420]	; 0x258
  b0:	e59f11a4 	ldr	r1, [pc, #420]	; 0x25c
  b4:	e5801000 	str	r1, [r0]
  b8:	e59f01a0 	ldr	r0, [pc, #416]	; 0x260
  bc:	e59f11a0 	ldr	r1, [pc, #416]	; 0x264
  c0:	e5801000 	str	r1, [r0]
  c4:	eb000161 	bl	0x650
  c8:	eb00013c 	bl	0x5c0
  cc:	eb00018f 	bl	0x710
  d0:	eb000022 	bl	0x160
  d4:	e10f0000 	mrs	r0, CPSR
  d8:	e3c00080 	bic	r0, r0, #128	; 0x80
  dc:	e129f000 	msr	CPSR_fc, r0
  e0:	ebffffff 	bl	0xe4
  e4:	eb00003b 	bl	0x1d8
  e8:	ebfffffd 	bl	0xe4
  ec:	e92d480f 	push	{r0, r1, r2, r3, fp, lr}
  f0:	e14fb000 	mrs	fp, SPSR
  f4:	e59f016c 	ldr	r0, [pc, #364]	; 0x268
  f8:	e5901040 	ldr	r1, [r0, #64]	; 0x40
  fc:	e201107f 	and	r1, r1, #127	; 0x7f
 100:	e351004b 	cmp	r1, #75	; 0x4b
 104:	e3510048 	cmp	r1, #72	; 0x48
 108:	e351005f 	cmp	r1, #95	; 0x5f
 10c:	0b000029 	bleq	0x1b8
 110:	e59f0150 	ldr	r0, [pc, #336]	; 0x268
 114:	e3a01001 	mov	r1, #1
 118:	e5801048 	str	r1, [r0, #72]	; 0x48
 11c:	f57ff04f 	dsb	sy
 120:	e169f00b 	msr	SPSR_fc, fp
 124:	e8fd880f 	ldm	sp!, {r0, r1, r2, r3, fp, pc}^
 128:	eafffffe 	b	0x128
 12c:	eafffffe 	b	0x12c
 130:	e92d5fff 	push	{r0, r1, r2, r3, r4, r5, r6, r7, r8, r9, sl, fp, ip, lr}
 134:	e51e0004 	ldr	r0, [lr, #-4]
 138:	e3c014ff 	bic	r1, r0, #-16777216	; 0xff000000
 13c:	e59f0128 	ldr	r0, [pc, #296]	; 0x26c
 140:	eb0000f5 	bl	0x51c
 144:	e1a00001 	mov	r0, r1
 148:	eb0000c0 	bl	0x450
 14c:	e59f011c 	ldr	r0, [pc, #284]	; 0x270
 150:	eb0000f1 	bl	0x51c
 154:	e8fd9fff 	ldm	sp!, {r0, r1, r2, r3, r4, r5, r6, r7, r8, r9, sl, fp, ip, pc}^
 158:	eafffffe 	b	0x158
 15c:	eafffffe 	b	0x15c
 160:	e92d4003 	push	{r0, r1, lr}
 164:	e59f0108 	ldr	r0, [pc, #264]	; 0x274
 168:	e5901000 	ldr	r1, [r0]
 16c:	e3811002 	orr	r1, r1, #2
 170:	e5801000 	str	r1, [r0]
 174:	e59f00fc 	ldr	r0, [pc, #252]	; 0x278
 178:	e5901000 	ldr	r1, [r0]
 17c:	e3811102 	orr	r1, r1, #-2147483648	; 0x80000000
 180:	e5801000 	str	r1, [r0]
 184:	e8bd8003 	pop	{r0, r1, pc}
 188:	e92d4003 	push	{r0, r1, lr}
 18c:	e59f40e8 	ldr	r4, [pc, #232]	; 0x27c
 190:	e5943000 	ldr	r3, [r4]
 194:	e3833001 	orr	r3, r3, #1
 198:	e5843000 	str	r3, [r4]
 19c:	e8bd8003 	pop	{r0, r1, pc}
 1a0:	e92d4003 	push	{r0, r1, lr}
 1a4:	e59f40d0 	ldr	r4, [pc, #208]	; 0x27c
 1a8:	e5943000 	ldr	r3, [r4]
 1ac:	e3c33001 	bic	r3, r3, #1
 1b0:	e5843000 	str	r3, [r4]
 1b4:	e8bd8003 	pop	{r0, r1, pc}
 1b8:	e92d4003 	push	{r0, r1, lr}
 1bc:	ebfffff7 	bl	0x1a0
 1c0:	e59f40b8 	ldr	r4, [pc, #184]	; 0x280
 1c4:	e3a01002 	mov	r1, #2
 1c8:	e5841000 	str	r1, [r4]
 1cc:	eb000109 	bl	0x5f8
 1d0:	eafffffe 	b	0x1d0
 1d4:	e8bd8003 	pop	{r0, r1, pc}
 1d8:	e92d4003 	push	{r0, r1, lr}
 1dc:	e3051dc0 	movw	r1, #24000	; 0x5dc0
 1e0:	e3020710 	movw	r0, #10000	; 0x2710
 1e4:	e0020091 	mul	r2, r1, r0
 1e8:	e3e01000 	mvn	r1, #0
 1ec:	e0410002 	sub	r0, r1, r2
 1f0:	e59f408c 	ldr	r4, [pc, #140]	; 0x284
 1f4:	e5840000 	str	r0, [r4]
 1f8:	e59f0088 	ldr	r0, [pc, #136]	; 0x288
 1fc:	e3a01002 	mov	r1, #2
 200:	e5801000 	str	r1, [r0]
 204:	ebffffdf 	bl	0x188
 208:	e3a0000b 	mov	r0, #11
 20c:	eb00007a 	bl	0x3fc
 210:	e2400001 	sub	r0, r0, #1
 214:	eb000085 	bl	0x430
 218:	e1a01000 	mov	r1, r0
 21c:	e59f0068 	ldr	r0, [pc, #104]	; 0x28c
 220:	eb0000bd 	bl	0x51c
 224:	e1a00001 	mov	r0, r1
 228:	e3500001 	cmp	r0, #1
 22c:	0b00010f 	bleq	0x670
 230:	ebfffff5 	bl	0x20c
 234:	e92d4003 	push	{r0, r1, lr}
 238:	00000d0a 	andeq	r0, r0, sl, lsl #26
 23c:	80001200 	andhi	r1, r0, r0, lsl #4
 240:	80001300 	andhi	r1, r0, r0, lsl #6
 244:	80001400 	andhi	r1, r0, r0, lsl #8
 248:	80001000 	andhi	r1, r0, r0
 24c:	80001100 	andhi	r1, r0, r0, lsl #2
 250:	80000f00 	andhi	r0, r0, r0, lsl #30
 254:	80001500 	andhi	r1, r0, r0, lsl #10
 258:	80000038 	andhi	r0, r0, r8, lsr r0
 25c:	800000ec 	andhi	r0, r0, ip, ror #1
 260:	80000028 	andhi	r0, r0, r8, lsr #32
 264:	80000130 	andhi	r0, r0, r0, lsr r1
 268:	48200000 	stmdami	r0!, {}	; <UNPREDICTABLE>
 26c:	80000b81 	andhi	r0, r0, r1, lsl #23
 270:	80000bcf 	andhi	r0, r0, pc, asr #23
 274:	44e0007c 	strbtmi	r0, [r0], #124	; 0x7c
 278:	482000c8 	stmdami	r0!, {r3, r6, r7}
 27c:	4804a038 	stmdami	r4, {r3, r4, r5, sp, pc}
 280:	4804a030 	stmdami	r4, {r4, r5, sp, pc}
 284:	4804a03c 	stmdami	r4, {r2, r3, r4, r5, sp, pc}
 288:	4804a02c 	stmdami	r4, {r2, r3, r5, sp, pc}
 28c:	80000238 	andhi	r0, r0, r8, lsr r2
 290:	e92d4003 	push	{r0, r1, lr}
 294:	e59f0090 	ldr	r0, [pc, #144]	; 0x32c
 298:	e3a01001 	mov	r1, #1
 29c:	e5c01000 	strb	r1, [r0]
 2a0:	e3a01002 	mov	r1, #2
 2a4:	e5c01000 	strb	r1, [r0]
 2a8:	e59f0080 	ldr	r0, [pc, #128]	; 0x330
 2ac:	e3a01000 	mov	r1, #0
 2b0:	e5c01048 	strb	r1, [r0, #72]	; 0x48
 2b4:	e59f0078 	ldr	r0, [pc, #120]	; 0x334
 2b8:	e3a01c01 	mov	r1, #256	; 0x100
 2bc:	e58010c8 	str	r1, [r0, #200]	; 0xc8
 2c0:	e8bd8003 	pop	{r0, r1, pc}
 2c4:	e92d4006 	push	{r1, r2, lr}
 2c8:	e59f1068 	ldr	r1, [pc, #104]	; 0x338
 2cc:	e5912014 	ldr	r2, [r1, #20]
 2d0:	e2022020 	and	r2, r2, #32
 2d4:	e3520000 	cmp	r2, #0
 2d8:	0afffffb 	beq	0x2cc
 2dc:	e5c10000 	strb	r0, [r1]
 2e0:	e8bd8006 	pop	{r1, r2, pc}
 2e4:	e92d4006 	push	{r1, r2, lr}
 2e8:	e59f1048 	ldr	r1, [pc, #72]	; 0x338
 2ec:	e5912014 	ldr	r2, [r1, #20]
 2f0:	e2022001 	and	r2, r2, #1
 2f4:	e3520000 	cmp	r2, #0
 2f8:	0afffffb 	beq	0x2ec
 2fc:	e5d10000 	ldrb	r0, [r1]
 300:	e8bd8006 	pop	{r1, r2, pc}
 304:	6f727265 	svcvs	0x00727265
 308:	00000d0a 	andeq	r0, r0, sl, lsl #26
 30c:	33323130 	teqcc	r2, #48, 2
 310:	37363534 			; <UNDEFINED> instruction: 0x37363534
 314:	0a2d3938 	beq	0xb4e7fc
 318:	3130000d 	teqcc	r0, sp
 31c:	35343332 	ldrcc	r3, [r4, #-818]!	; 0xfffffcce
 320:	39383736 	ldmdbcc	r8!, {r1, r2, r4, r5, r8, r9, sl, ip, sp}
 324:	0a000d0a 	beq	0x3754
 328:	0000000d 	andeq	r0, r0, sp
 32c:	44e09004 	strbtmi	r9, [r0], #4
 330:	48200100 	stmdami	r0!, {r8}
 334:	48200000 	stmdami	r0!, {}	; <UNPREDICTABLE>
 338:	44e09000 	strbtmi	r9, [r0], #0
 33c:	00000000 	andeq	r0, r0, r0
 340:	e1a02000 	mov	r2, r0
 344:	e1a03001 	mov	r3, r1
 348:	e3a00000 	mov	r0, #0
 34c:	e1520003 	cmp	r2, r3
 350:	ba000002 	blt	0x360
 354:	e0422003 	sub	r2, r2, r3
 358:	e2800001 	add	r0, r0, #1
 35c:	eafffffa 	b	0x34c
 360:	e12fff1e 	bx	lr
 364:	e92d4007 	push	{r0, r1, r2, lr}
 368:	e0811000 	add	r1, r1, r0
 36c:	e3a02000 	mov	r2, #0
 370:	e1500001 	cmp	r0, r1
 374:	b4802004 	strlt	r2, [r0], #4
 378:	bafffffc 	blt	0x370
 37c:	e8bd8007 	pop	{r0, r1, r2, pc}
 380:	e92d400f 	push	{r0, r1, r2, r3, lr}
 384:	e1a02000 	mov	r2, r0
 388:	e1a03001 	mov	r3, r1
 38c:	e59f0214 	ldr	r0, [pc, #532]	; 0x5a8
 390:	e3a01002 	mov	r1, #2
 394:	eb000069 	bl	0x540
 398:	e1a00002 	mov	r0, r2
 39c:	eb00002b 	bl	0x450
 3a0:	e59f0204 	ldr	r0, [pc, #516]	; 0x5ac
 3a4:	e3a01005 	mov	r1, #5
 3a8:	eb000064 	bl	0x540
 3ac:	e59f01f4 	ldr	r0, [pc, #500]	; 0x5a8
 3b0:	e3a01002 	mov	r1, #2
 3b4:	eb000061 	bl	0x540
 3b8:	e4920004 	ldr	r0, [r2], #4
 3bc:	eb000023 	bl	0x450
 3c0:	e59f01e8 	ldr	r0, [pc, #488]	; 0x5b0
 3c4:	e3a01002 	mov	r1, #2
 3c8:	eb00005c 	bl	0x540
 3cc:	e2533004 	subs	r3, r3, #4
 3d0:	1affffed 	bne	0x38c
 3d4:	e8bd800f 	pop	{r0, r1, r2, r3, pc}
 3d8:	e3e0120f 	mvn	r1, #-268435456	; 0xf0000000
 3dc:	e2411001 	sub	r1, r1, #1
 3e0:	e3510000 	cmp	r1, #0
 3e4:	1afffffc 	bne	0x3dc
 3e8:	e12fff1e 	bx	lr
 3ec:	e92d4007 	push	{r0, r1, r2, lr}
 3f0:	e3e0120f 	mvn	r1, #-268435456	; 0xf0000000
 3f4:	ebfffff8 	bl	0x3dc
 3f8:	e8bd8007 	pop	{r0, r1, r2, pc}
 3fc:	e92d4007 	push	{r0, r1, r2, lr}
 400:	e59f01ac 	ldr	r0, [pc, #428]	; 0x5b4
 404:	e5d01000 	ldrb	r1, [r0]
 408:	e5d02000 	ldrb	r2, [r0]
 40c:	e1520001 	cmp	r2, r1
 410:	0afffffc 	beq	0x408
 414:	e8bd8007 	pop	{r0, r1, r2, pc}
 418:	e2800030 	add	r0, r0, #48	; 0x30
 41c:	e12fff1e 	bx	lr
 420:	e92d4007 	push	{r0, r1, r2, lr}
 424:	e59f118c 	ldr	r1, [pc, #396]	; 0x5b8
 428:	e7d10000 	ldrb	r0, [r1, r0]
 42c:	e8bd8007 	pop	{r0, r1, r2, pc}
 430:	e92d4007 	push	{r0, r1, r2, lr}
 434:	e3a0100a 	mov	r1, #10
 438:	ebffffc0 	bl	0x340
 43c:	e2800030 	add	r0, r0, #48	; 0x30
 440:	ebffff9f 	bl	0x2c4
 444:	e2820030 	add	r0, r2, #48	; 0x30
 448:	ebffff9d 	bl	0x2c4
 44c:	e8bd8007 	pop	{r0, r1, r2, pc}
 450:	e92d400f 	push	{r0, r1, r2, r3, lr}
 454:	e1a01000 	mov	r1, r0
 458:	e3a00000 	mov	r0, #0
 45c:	e3a0301c 	mov	r3, #28
 460:	e59f2150 	ldr	r2, [pc, #336]	; 0x5b8
 464:	e1a00331 	lsr	r0, r1, r3
 468:	e200000f 	and	r0, r0, #15
 46c:	e7d20000 	ldrb	r0, [r2, r0]
 470:	ebffff93 	bl	0x2c4
 474:	e2533004 	subs	r3, r3, #4
 478:	1afffff9 	bne	0x464
 47c:	e1a00001 	mov	r0, r1
 480:	e200000f 	and	r0, r0, #15
 484:	e7d20000 	ldrb	r0, [r2, r0]
 488:	ebffff8d 	bl	0x2c4
 48c:	e8bd800f 	pop	{r0, r1, r2, r3, pc}
 490:	e92d400e 	push	{r1, r2, r3, lr}
 494:	e1a02000 	mov	r2, r0
 498:	e3a00000 	mov	r0, #0
 49c:	e3510000 	cmp	r1, #0
 4a0:	0a000003 	beq	0x4b4
 4a4:	e4d23001 	ldrb	r3, [r2], #1
 4a8:	e0800003 	add	r0, r0, r3
 4ac:	e2411001 	sub	r1, r1, #1
 4b0:	eafffff9 	b	0x49c
 4b4:	e8bd800e 	pop	{r1, r2, r3, pc}
 4b8:	e92d401e 	push	{r1, r2, r3, r4, lr}
 4bc:	e1a04001 	mov	r4, r1
 4c0:	e1a01002 	mov	r1, r2
 4c4:	ebfffff1 	bl	0x490
 4c8:	e1a03000 	mov	r3, r0
 4cc:	e1a00004 	mov	r0, r4
 4d0:	ebffffee 	bl	0x490
 4d4:	e0430000 	sub	r0, r3, r0
 4d8:	e8bd801e 	pop	{r1, r2, r3, r4, pc}
 4dc:	e92d407e 	push	{r1, r2, r3, r4, r5, r6, lr}
 4e0:	e1a03000 	mov	r3, r0
 4e4:	e1a04001 	mov	r4, r1
 4e8:	e3a00000 	mov	r0, #0
 4ec:	e7d35000 	ldrb	r5, [r3, r0]
 4f0:	e7d46000 	ldrb	r6, [r4, r0]
 4f4:	e1550006 	cmp	r5, r6
 4f8:	1a000003 	bne	0x50c
 4fc:	e2800001 	add	r0, r0, #1
 500:	e1520000 	cmp	r2, r0
 504:	0a000002 	beq	0x514
 508:	eafffff7 	b	0x4ec
 50c:	e3a00001 	mov	r0, #1
 510:	e8bd807e 	pop	{r1, r2, r3, r4, r5, r6, pc}
 514:	e3a00000 	mov	r0, #0
 518:	e8bd807e 	pop	{r1, r2, r3, r4, r5, r6, pc}
 51c:	e92d4007 	push	{r0, r1, r2, lr}
 520:	e1a01000 	mov	r1, r0
 524:	e4d10001 	ldrb	r0, [r1], #1
 528:	e20000ff 	and	r0, r0, #255	; 0xff
 52c:	e3500000 	cmp	r0, #0
 530:	0a000001 	beq	0x53c
 534:	ebffff62 	bl	0x2c4
 538:	eafffff9 	b	0x524
 53c:	e8bd8007 	pop	{r0, r1, r2, pc}
 540:	e92d4007 	push	{r0, r1, r2, lr}
 544:	e1a02000 	mov	r2, r0
 548:	e4d20001 	ldrb	r0, [r2], #1
 54c:	ebffff5c 	bl	0x2c4
 550:	e2511001 	subs	r1, r1, #1
 554:	0afffff8 	beq	0x53c
 558:	eafffffa 	b	0x548
 55c:	e8bd8007 	pop	{r0, r1, r2, pc}
 560:	e92d403e 	push	{r1, r2, r3, r4, r5, lr}
 564:	e3a02001 	mov	r2, #1
 568:	e3a0300a 	mov	r3, #10
 56c:	e3a05000 	mov	r5, #0
 570:	e3a08000 	mov	r8, #0
 574:	e1a04001 	mov	r4, r1
 578:	e204400f 	and	r4, r4, #15
 57c:	e0060294 	mul	r6, r4, r2
 580:	e1a04006 	mov	r4, r6
 584:	e0070392 	mul	r7, r2, r3
 588:	e1a02007 	mov	r2, r7
 58c:	e0855004 	add	r5, r5, r4
 590:	e1a01221 	lsr	r1, r1, #4
 594:	e2888001 	add	r8, r8, #1
 598:	e3580007 	cmp	r8, #7
 59c:	1afffff4 	bne	0x574
 5a0:	e1a00005 	mov	r0, r5
 5a4:	e8bd803e 	pop	{r1, r2, r3, r4, r5, pc}
 5a8:	80000bcc 	andhi	r0, r0, ip, asr #23
 5ac:	80000bd2 	ldrdhi	r0, [r0], -r2
 5b0:	80000bcf 	andhi	r0, r0, pc, asr #23
 5b4:	44e3e000 	strbtmi	lr, [r3], #0
 5b8:	80000b9f 	mulhi	r0, pc, fp	; <UNPREDICTABLE>
 5bc:	00000000 	andeq	r0, r0, r0
 5c0:	e92d4003 	push	{r0, r1, lr}
 5c4:	e59f0050 	ldr	r0, [pc, #80]	; 0x61c
 5c8:	e59f1050 	ldr	r1, [pc, #80]	; 0x620
 5cc:	e5801048 	str	r1, [r0, #72]	; 0x48
 5d0:	eb000003 	bl	0x5e4
 5d4:	e59f1048 	ldr	r1, [pc, #72]	; 0x624
 5d8:	e5801048 	str	r1, [r0, #72]	; 0x48
 5dc:	eb000000 	bl	0x5e4
 5e0:	e8bd8003 	pop	{r0, r1, pc}
 5e4:	e5901034 	ldr	r1, [r0, #52]	; 0x34
 5e8:	e2011010 	and	r1, r1, #16
 5ec:	e3510000 	cmp	r1, #0
 5f0:	1afffffb 	bne	0x5e4
 5f4:	e12fff1e 	bx	lr
 5f8:	e92d4003 	push	{r0, r1, lr}
 5fc:	e59f4024 	ldr	r4, [pc, #36]	; 0x628
 600:	e5940000 	ldr	r0, [r4]
 604:	e3e00000 	mvn	r0, #0
 608:	e5840000 	str	r0, [r4]
 60c:	e8bd8003 	pop	{r0, r1, pc}
 610:	656d6974 	strbvs	r6, [sp, #-2420]!	; 0xfffff68c
 614:	6b6f2072 	blvs	0x1bc87e4
 618:	00000d0a 	andeq	r0, r0, sl, lsl #26
 61c:	44e35000 	strbtmi	r5, [r3], #0
 620:	0000aaaa 	andeq	sl, r0, sl, lsr #21
 624:	00005555 	andeq	r5, r0, r5, asr r5
 628:	44e35028 	strbtmi	r5, [r3], #40	; 0x28
 62c:	00000000 	andeq	r0, r0, r0
 630:	e92d4007 	push	{r0, r1, r2, lr}
 634:	ee110f10 	mrc	15, 0, r0, cr1, cr0, {0}
 638:	e3c00a02 	bic	r0, r0, #8192	; 0x2000
 63c:	ee010f10 	mcr	15, 0, r0, cr1, cr0, {0}
 640:	e59f0004 	ldr	r0, [pc, #4]	; 0x64c
 644:	ee0c0f10 	mcr	15, 0, r0, cr12, cr0, {0}
 648:	e8bd8007 	pop	{r0, r1, r2, pc}
 64c:	80000000 	andhi	r0, r0, r0
 650:	e59f0098 	ldr	r0, [pc, #152]	; 0x6f0
 654:	e59f1098 	ldr	r1, [pc, #152]	; 0x6f4
 658:	e5801000 	str	r1, [r0]
 65c:	e59f0094 	ldr	r0, [pc, #148]	; 0x6f8
 660:	e5901000 	ldr	r1, [r0]
 664:	e3c1161e 	bic	r1, r1, #31457280	; 0x1e00000
 668:	e5801000 	str	r1, [r0]
 66c:	e12fff1e 	bx	lr
 670:	e92d401f 	push	{r0, r1, r2, r3, r4, lr}
 674:	e59f0080 	ldr	r0, [pc, #128]	; 0x6fc
 678:	e3a01602 	mov	r1, #2097152	; 0x200000
 67c:	e5801000 	str	r1, [r0]
 680:	e8bd801f 	pop	{r0, r1, r2, r3, r4, pc}
 684:	e92d401f 	push	{r0, r1, r2, r3, r4, lr}
 688:	e59f0070 	ldr	r0, [pc, #112]	; 0x700
 68c:	e3a01602 	mov	r1, #2097152	; 0x200000
 690:	e5801000 	str	r1, [r0]
 694:	e8bd801f 	pop	{r0, r1, r2, r3, r4, pc}
 698:	e92d401f 	push	{r0, r1, r2, r3, r4, lr}
 69c:	e1a04000 	mov	r4, r0
 6a0:	ebfffff2 	bl	0x670
 6a4:	ebffff4b 	bl	0x3d8
 6a8:	ebfffff5 	bl	0x684
 6ac:	ebffff49 	bl	0x3d8
 6b0:	e2444001 	sub	r4, r4, #1
 6b4:	e3540000 	cmp	r4, #0
 6b8:	1afffff8 	bne	0x6a0
 6bc:	e8bd801f 	pop	{r0, r1, r2, r3, r4, pc}
 6c0:	e92d401f 	push	{r0, r1, r2, r3, r4, lr}
 6c4:	e59f0034 	ldr	r0, [pc, #52]	; 0x700
 6c8:	e3a0161e 	mov	r1, #31457280	; 0x1e00000
 6cc:	e5801000 	str	r1, [r0]
 6d0:	e59f0024 	ldr	r0, [pc, #36]	; 0x6fc
 6d4:	e1a01a83 	lsl	r1, r3, #21
 6d8:	e5801000 	str	r1, [r0]
 6dc:	ebffff42 	bl	0x3ec
 6e0:	e59f0018 	ldr	r0, [pc, #24]	; 0x700
 6e4:	e3a0161e 	mov	r1, #31457280	; 0x1e00000
 6e8:	e5801000 	str	r1, [r0]
 6ec:	e8bd801f 	pop	{r0, r1, r2, r3, r4, pc}
 6f0:	44e000ac 	strbtmi	r0, [r0], #172	; 0xac
 6f4:	00040002 	andeq	r0, r4, r2
 6f8:	4804c134 	stmdami	r4, {r2, r4, r5, r8, lr, pc}
 6fc:	4804c194 	stmdami	r4, {r2, r4, r7, r8, lr, pc}
 700:	4804c190 	stmdami	r4, {r4, r7, r8, lr, pc}
	...
 710:	e92d4003 	push	{r0, r1, lr}
 714:	e59f00f8 	ldr	r0, [pc, #248]	; 0x814
 718:	e3a01002 	mov	r1, #2
 71c:	e5801000 	str	r1, [r0]
 720:	e59f00f0 	ldr	r0, [pc, #240]	; 0x818
 724:	e5801000 	str	r1, [r0]
 728:	e59f00ec 	ldr	r0, [pc, #236]	; 0x81c
 72c:	e59f10ec 	ldr	r1, [pc, #236]	; 0x820
 730:	e580106c 	str	r1, [r0, #108]	; 0x6c
 734:	e59f10e8 	ldr	r1, [pc, #232]	; 0x824
 738:	e5801070 	str	r1, [r0, #112]	; 0x70
 73c:	e3a01048 	mov	r1, #72	; 0x48
 740:	e5801054 	str	r1, [r0, #84]	; 0x54
 744:	e59f00d0 	ldr	r0, [pc, #208]	; 0x81c
 748:	e3a01001 	mov	r1, #1
 74c:	e5801040 	str	r1, [r0, #64]	; 0x40
 750:	e5901044 	ldr	r1, [r0, #68]	; 0x44
 754:	e2011001 	and	r1, r1, #1
 758:	e3510000 	cmp	r1, #0
 75c:	1afffffb 	bne	0x750
 760:	e59f00c0 	ldr	r0, [pc, #192]	; 0x828
 764:	e3a01000 	mov	r1, #0
 768:	e5c0104b 	strb	r1, [r0, #75]	; 0x4b
 76c:	e59f00b8 	ldr	r0, [pc, #184]	; 0x82c
 770:	e3a01b02 	mov	r1, #2048	; 0x800
 774:	e58010c8 	str	r1, [r0, #200]	; 0xc8
 778:	e8bd8003 	pop	{r0, r1, pc}
 77c:	e92d4007 	push	{r0, r1, r2, lr}
 780:	e1a02000 	mov	r2, r0
 784:	e2020070 	and	r0, r2, #112	; 0x70
 788:	e1a00220 	lsr	r0, r0, #4
 78c:	ebffff21 	bl	0x418
 790:	ebfffecb 	bl	0x2c4
 794:	e202000f 	and	r0, r2, #15
 798:	e2800030 	add	r0, r0, #48	; 0x30
 79c:	ebfffec8 	bl	0x2c4
 7a0:	e8bd8007 	pop	{r0, r1, r2, pc}
 7a4:	e92d4007 	push	{r0, r1, r2, lr}
 7a8:	e59f106c 	ldr	r1, [pc, #108]	; 0x81c
 7ac:	e5910008 	ldr	r0, [r1, #8]
 7b0:	ebfffff1 	bl	0x77c
 7b4:	e3a0003a 	mov	r0, #58	; 0x3a
 7b8:	ebfffec1 	bl	0x2c4
 7bc:	e5910004 	ldr	r0, [r1, #4]
 7c0:	ebffffed 	bl	0x77c
 7c4:	e3a0003a 	mov	r0, #58	; 0x3a
 7c8:	ebfffebd 	bl	0x2c4
 7cc:	e5910000 	ldr	r0, [r1]
 7d0:	ebffffe9 	bl	0x77c
 7d4:	e59f0054 	ldr	r0, [pc, #84]	; 0x830
 7d8:	ebffff4f 	bl	0x51c
 7dc:	e8bd8007 	pop	{r0, r1, r2, pc}
 7e0:	e92d4007 	push	{r0, r1, r2, lr}
 7e4:	ebffffee 	bl	0x7a4
 7e8:	e8bd8007 	pop	{r0, r1, r2, pc}
 7ec:	e92d403e 	push	{r1, r2, r3, r4, r5, lr}
 7f0:	e59f1024 	ldr	r1, [pc, #36]	; 0x81c
 7f4:	e3c554ff 	bic	r5, r5, #-16777216	; 0xff000000
 7f8:	e5c15000 	strb	r5, [r1]
 7fc:	e1a05425 	lsr	r5, r5, #8
 800:	e5c15004 	strb	r5, [r1, #4]
 804:	e1a05425 	lsr	r5, r5, #8
 808:	e5c15008 	strb	r5, [r1, #8]
 80c:	e8bd803e 	pop	{r1, r2, r3, r4, r5, pc}
 810:	00000d0a 	andeq	r0, r0, sl, lsl #26
 814:	44e00804 	strbtmi	r0, [r0], #2052	; 0x804
 818:	44e00800 	strbtmi	r0, [r0], #2048	; 0x800
 81c:	44e3e000 	strbtmi	lr, [r3], #0
 820:	83e70b13 	mvnhi	r0, #19456	; 0x4c00
 824:	95a4f1e0 	strls	pc, [r4, #480]!	; 0x1e0
 828:	48200100 	stmdami	r0!, {r8}
 82c:	48200000 	stmdami	r0!, {}	; <UNPREDICTABLE>
 830:	80000810 	andhi	r0, r0, r0, lsl r8
 834:	43f0e92d 	mvnsmi	lr, #737280	; 0xb4000
 838:	af00b089 	svcge	0x0000b089
 83c:	71fb4603 	mvnsvc	r4, r3, lsl #12
 840:	461e466b 	ldrmi	r4, [lr], -fp, ror #12
 844:	77fb79fb 			; <UNDEFINED> instruction: 0x77fb79fb
 848:	61bb2300 			; <UNDEFINED> instruction: 0x61bb2300
 84c:	7ffae00b 	svcvc	0x00fae00b
 850:	43cdf64c 	bicmi	pc, sp, #76, 12	; 0x4c00000
 854:	43ccf6cc 	bicmi	pc, ip, #204, 12	; 0xcc00000
 858:	2302fba3 	movwcs	pc, #11171	; 0x2ba3	; <UNPREDICTABLE>
 85c:	77fb08db 	ubfxvc	r0, fp, #17, #28
 860:	330169bb 	movwcc	r6, #6587	; 0x19bb
 864:	7ffb61bb 	svcvc	0x00fb61bb
 868:	d1f02b00 	mvnsle	r2, r0, lsl #22
 86c:	1e4b69b9 			; <UNDEFINED> instruction: 0x1e4b69b9
 870:	460a60fb 			; <UNDEFINED> instruction: 0x460a60fb
 874:	46902300 	ldrmi	r2, [r0], r0, lsl #6
 878:	f04f4699 			; <UNDEFINED> instruction: 0xf04f4699
 87c:	f04f0200 			; <UNDEFINED> instruction: 0xf04f0200
 880:	ea4f0300 	b	0x13c1488
 884:	ea4303c9 	b	0x10c17b0
 888:	ea4f7358 	b	0x13dd5f0
 88c:	460a02c8 	strmi	r0, [sl], -r8, asr #5
 890:	46142300 	ldrmi	r2, [r4], -r0, lsl #6
 894:	f04f461d 			; <UNDEFINED> instruction: 0xf04f461d
 898:	f04f0200 			; <UNDEFINED> instruction: 0xf04f0200
 89c:	00eb0300 	rsceq	r0, fp, r0, lsl #6
 8a0:	7354ea43 	cmpvc	r4, #274432	; 0x43000
 8a4:	460b00e2 	strmi	r0, [fp], -r2, ror #1
 8a8:	08db3307 	ldmeq	fp, {r0, r1, r2, r8, r9, ip, sp}^
 8ac:	ebad00db 	bl	0xfeb40c20
 8b0:	466b0d03 	strbtmi	r0, [fp], -r3, lsl #26
 8b4:	60bb3300 	adcsvs	r3, fp, r0, lsl #6
 8b8:	617b2300 	cmnvs	fp, r0, lsl #6
 8bc:	79fae020 	ldmibvc	sl!, {r5, sp, lr, pc}^
 8c0:	43cdf64c 	bicmi	pc, sp, #76, 12	; 0x4c00000
 8c4:	43ccf6cc 	bicmi	pc, ip, #204, 12	; 0xcc00000
 8c8:	1302fba3 	movwne	pc, #11171	; 0x2ba3	; <UNPREDICTABLE>
 8cc:	460b08d9 			; <UNDEFINED> instruction: 0x460b08d9
 8d0:	440b009b 	strmi	r0, [fp], #-155	; 0xffffff65
 8d4:	1ad3005b 	bne	0xff4c0a48
 8d8:	3330b2db 	teqcc	r0, #-1342177267	; 0xb000000d
 8dc:	68bab2d9 	ldmvs	sl!, {r0, r3, r4, r6, r7, r9, ip, sp, pc}
 8e0:	4413697b 	ldrmi	r6, [r3], #-2427	; 0xfffff685
 8e4:	701a460a 	andsvc	r4, sl, sl, lsl #12
 8e8:	f64c79fa 			; <UNDEFINED> instruction: 0xf64c79fa
 8ec:	f6cc43cd 			; <UNDEFINED> instruction: 0xf6cc43cd
 8f0:	fba343cc 	blx	0xfe8d182a
 8f4:	08db2302 	ldmeq	fp, {r1, r8, r9, sp}^
 8f8:	697b71fb 	ldmdbvs	fp!, {r0, r1, r3, r4, r5, r6, r7, r8, ip, sp, lr}^
 8fc:	617b3301 	cmnvs	fp, r1, lsl #6
 900:	69bb697a 	ldmibvs	fp!, {r1, r3, r4, r5, r6, r8, fp, sp, lr}
 904:	dbda429a 	blle	0xff691374
 908:	3b0169bb 	blcc	0x5affc
 90c:	e009613b 	and	r6, r9, fp, lsr r1
 910:	693b68ba 	ldmdbvs	fp!, {r1, r3, r4, r5, r7, fp, sp, lr}
 914:	781b4413 	ldmdavc	fp, {r0, r1, r4, sl, lr}
 918:	f7ff4618 			; <UNDEFINED> instruction: 0xf7ff4618
 91c:	693becd4 	ldmdbvs	fp!, {r2, r4, r6, r7, sl, fp, sp, lr, pc}
 920:	613b3b01 	teqvs	fp, r1, lsl #22
 924:	2b00693b 	blcs	0x1ae18
 928:	2300daf2 	movwcs	sp, #2802	; 0xaf2
 92c:	461846b5 			; <UNDEFINED> instruction: 0x461846b5
 930:	46bd3724 	ldrtmi	r3, [sp], r4, lsr #14
 934:	83f0e8bd 	mvnshi	lr, #12386304	; 0xbd0000
 938:	43f0e92d 	mvnsmi	lr, #737280	; 0xb4000
 93c:	af00b08f 	svcge	0x0000b08f
 940:	60b960f8 	ldrshtvs	r6, [r9], r8
 944:	71fb4613 	mvnsvc	r4, r3, lsl r6
 948:	461e466b 	ldrmi	r4, [lr], -fp, ror #12
 94c:	f8872301 			; <UNDEFINED> instruction: 0xf8872301
 950:	23003037 	movwcs	r3, #55	; 0x37
 954:	3036f887 	eorscc	pc, r6, r7, lsl #17
 958:	1e4b68b9 	mcrne	8, 2, r6, cr11, cr9, {5}
 95c:	460a61fb 			; <UNDEFINED> instruction: 0x460a61fb
 960:	46902300 	ldrmi	r2, [r0], r0, lsl #6
 964:	f04f4699 			; <UNDEFINED> instruction: 0xf04f4699
 968:	f04f0200 			; <UNDEFINED> instruction: 0xf04f0200
 96c:	ea4f0300 	b	0x13c1574
 970:	ea431349 	b	0x10c569c
 974:	ea4f63d8 	b	0x13d98dc
 978:	460a1248 	strmi	r1, [sl], -r8, asr #4
 97c:	46142300 	ldrmi	r2, [r4], -r0, lsl #6
 980:	f04f461d 			; <UNDEFINED> instruction: 0xf04f461d
 984:	f04f0200 			; <UNDEFINED> instruction: 0xf04f0200
 988:	016b0300 	cmneq	fp, r0, lsl #6
 98c:	63d4ea43 	bicsvs	lr, r4, #274432	; 0x43000
 990:	460b0162 	strmi	r0, [fp], -r2, ror #2
 994:	3307009b 	movwcc	r0, #28827	; 0x709b
 998:	00db08db 	ldrsbeq	r0, [fp], #139	; 0x8b
 99c:	0d03ebad 	vstreq	d14, [r3, #-692]	; 0xfffffd4c
 9a0:	3303466b 	movwcc	r4, #13931	; 0x366b
 9a4:	009b089b 	umullseq	r0, fp, fp, r8
 9a8:	230061bb 	movwcs	r6, #443	; 0x1bb
 9ac:	e025633b 	eor	r6, r5, fp, lsr r3
 9b0:	68fa6b3b 	ldmvs	sl!, {r0, r1, r3, r4, r5, r8, r9, fp, sp, lr}^
 9b4:	781b4413 	ldmdavc	fp, {r0, r1, r4, sl, lr}
 9b8:	69bb4619 	ldmibvs	fp!, {r0, r3, r4, r9, sl, lr}
 9bc:	f8436b3a 			; <UNDEFINED> instruction: 0xf8436b3a
 9c0:	f8971022 			; <UNDEFINED> instruction: 0xf8971022
 9c4:	79fb2037 	ldmibvc	fp!, {r0, r1, r2, r4, r5, sp}^
 9c8:	b2db4013 	sbcslt	r4, fp, #19
 9cc:	d00d2b00 	andle	r2, sp, r0, lsl #22
 9d0:	6b3a69bb 	blvs	0xe9b0c4
 9d4:	3022f853 	eorcc	pc, r2, r3, asr r8	; <UNPREDICTABLE>
 9d8:	69bb4259 	ldmibvs	fp!, {r0, r3, r4, r6, r9, lr}
 9dc:	f8436b3a 			; <UNDEFINED> instruction: 0xf8436b3a
 9e0:	f8971022 			; <UNDEFINED> instruction: 0xf8971022
 9e4:	33013036 	movwcc	r3, #4150	; 0x1036
 9e8:	3036f887 	eorscc	pc, r6, r7, lsl #17
 9ec:	3037f897 	mlascc	r7, r7, r8, pc	; <UNPREDICTABLE>
 9f0:	f887005b 			; <UNDEFINED> instruction: 0xf887005b
 9f4:	6b3b3037 	blvs	0xeccad8
 9f8:	633b3301 	teqvs	fp, #67108864	; 0x4000000
 9fc:	68bb6b3a 	ldmvs	fp!, {r1, r3, r4, r5, r8, r9, fp, sp, lr}
 a00:	dbd5429a 	blle	0xff551470
 a04:	62bb2301 	adcsvs	r2, fp, #67108864	; 0x4000000
 a08:	69bbe027 	ldmibvs	fp!, {r0, r1, r2, r5, sp, lr, pc}
 a0c:	f8536aba 			; <UNDEFINED> instruction: 0xf8536aba
 a10:	617b3022 	cmnvs	fp, r2, lsr #32
 a14:	3b016abb 	blcc	0x5b508
 a18:	e00b62fb 	strd	r6, [fp], -fp
 a1c:	1c5a6afb 	mrrcne	10, 15, r6, sl, cr11
 a20:	6af969bb 	bvs	0xffe5b114
 a24:	1021f853 	eorne	pc, r1, r3, asr r8	; <UNPREDICTABLE>
 a28:	f84369bb 			; <UNDEFINED> instruction: 0xf84369bb
 a2c:	6afb1022 	bvs	0xffec4abc
 a30:	62fb3b01 	rscsvs	r3, fp, #1024	; 0x400
 a34:	2b006afb 	blcs	0x1b628
 a38:	69bbdb06 	ldmibvs	fp!, {r1, r2, r8, r9, fp, ip, lr, pc}
 a3c:	f8536afa 			; <UNDEFINED> instruction: 0xf8536afa
 a40:	697a3022 	ldmdbvs	sl!, {r1, r5, ip, sp}^
 a44:	dbe9429a 	blle	0xffa514b4
 a48:	1c5a6afb 	mrrcne	10, 15, r6, sl, cr11
 a4c:	697969bb 	ldmdbvs	r9!, {r0, r1, r3, r4, r5, r7, r8, fp, sp, lr}^
 a50:	1022f843 	eorne	pc, r2, r3, asr #16
 a54:	33016abb 	movwcc	r6, #6843	; 0x1abb
 a58:	6aba62bb 	bvs	0xfee9954c
 a5c:	429a68bb 	addsmi	r6, sl, #12255232	; 0xbb0000
 a60:	2300dbd3 	movwcs	sp, #3027	; 0xbd3
 a64:	e01a627b 	ands	r6, sl, fp, ror r2
 a68:	6a7a69bb 	bvs	0x1e9b15c
 a6c:	3022f853 	eorcc	pc, r2, r3, asr r8	; <UNPREDICTABLE>
 a70:	da082b00 	ble	0x20b678
 a74:	6a7a69bb 	bvs	0x1e9b168
 a78:	3022f853 	eorcc	pc, r2, r3, asr r8	; <UNPREDICTABLE>
 a7c:	69bb4259 	ldmibvs	fp!, {r0, r3, r4, r6, r9, lr}
 a80:	f8436a7a 			; <UNDEFINED> instruction: 0xf8436a7a
 a84:	69bb1022 	ldmibvs	fp!, {r1, r5, ip}
 a88:	f8536a7a 			; <UNDEFINED> instruction: 0xf8536a7a
 a8c:	6a7b1022 	bvs	0x1ec4b1c
 a90:	441368fa 	ldrmi	r6, [r3], #-2298	; 0xfffff706
 a94:	701ab2ca 	andsvc	fp, sl, sl, asr #5
 a98:	33016a7b 	movwcc	r6, #6779	; 0x1a7b
 a9c:	6a7a627b 	bvs	0x1e99490
 aa0:	429a68bb 	addsmi	r6, sl, #12255232	; 0xbb0000
 aa4:	2301dbe0 	movwcs	sp, #7136	; 0x1be0
 aa8:	3037f887 	eorscc	pc, r7, r7, lsl #17
 aac:	f7ff207b 			; <UNDEFINED> instruction: 0xf7ff207b
 ab0:	2300ec0a 	movwcs	lr, #3082	; 0xc0a
 ab4:	e025623b 	eor	r6, r5, fp, lsr r2
 ab8:	3036f897 	mlascc	r6, r7, r8, pc	; <UNPREDICTABLE>
 abc:	d0072b00 	andle	r2, r7, r0, lsl #22
 ac0:	f7ff202d 			; <UNDEFINED> instruction: 0xf7ff202d
 ac4:	f897ec00 			; <UNDEFINED> instruction: 0xf897ec00
 ac8:	3b013036 	blcc	0x4cba8
 acc:	3036f887 	eorscc	pc, r6, r7, lsl #17
 ad0:	3037f897 	mlascc	r7, r7, r8, pc	; <UNPREDICTABLE>
 ad4:	f887005b 			; <UNDEFINED> instruction: 0xf887005b
 ad8:	6a3b3037 	bvs	0xeccbbc
 adc:	441368fa 	ldrmi	r6, [r3], #-2298	; 0xfffff706
 ae0:	4618781b 			; <UNDEFINED> instruction: 0x4618781b
 ae4:	fea6f7ff 	mcr2	7, 5, pc, cr6, cr15, {7}	; <UNPREDICTABLE>
 ae8:	3b0168bb 	blcc	0x5addc
 aec:	429a6a3a 	addsmi	r6, sl, #237568	; 0x3a000
 af0:	202cd005 	eorcs	sp, ip, r5
 af4:	ebe6f7ff 	bl	0xff9beaf8
 af8:	f7ff2020 			; <UNDEFINED> instruction: 0xf7ff2020
 afc:	6a3bebe4 	bvs	0xefba94
 b00:	623b3301 	eorsvs	r3, fp, #67108864	; 0x4000000
 b04:	68bb6a3a 	ldmvs	fp!, {r1, r3, r4, r5, r9, fp, sp, lr}
 b08:	dbd5429a 	blle	0xff551578
 b0c:	f7ff207d 			; <UNDEFINED> instruction: 0xf7ff207d
 b10:	2300ebda 	movwcs	lr, #3034	; 0xbda
 b14:	461846b5 			; <UNDEFINED> instruction: 0x461846b5
 b18:	46bd373c 			; <UNDEFINED> instruction: 0x46bd373c
 b1c:	83f0e8bd 	mvnshi	lr, #12386304	; 0xbd0000
 b20:	6c6c6548 	cfstr64vs	mvdx6, [ip], #-288	; 0xfffffee0
 b24:	6f77206f 	svcvs	0x0077206f
 b28:	21646c72 	smccs	18114	; 0x46c2
 b2c:	0d0a2121 	stfeqs	f2, [sl, #-132]	; 0xffffff7c
 b30:	52490000 	subpl	r0, r9, #0
 b34:	6f4d2051 	svcvs	0x004d2051
 b38:	0a216564 	beq	0x85a0d0
 b3c:	4946000d 	stmdbmi	r6, {r0, r2, r3}^
 b40:	6f4d2051 	svcvs	0x004d2051
 b44:	0a216564 	beq	0x85a0dc
 b48:	7250000d 	subsvc	r0, r0, #13
 b4c:	74656665 	strbtvc	r6, [r5], #-1637	; 0xfffff99b
 b50:	41206863 			; <UNDEFINED> instruction: 0x41206863
 b54:	74726f62 	ldrbtvc	r6, [r2], #-3938	; 0xfffff09e
 b58:	000d0a21 	andeq	r0, sp, r1, lsr #20
 b5c:	61746144 	cmnvs	r4, r4, asr #2
 b60:	6f624120 	svcvs	0x00624120
 b64:	0a217472 	beq	0x85dd34
 b68:	6e55000d 	cdpvs	0, 5, cr0, cr5, cr13, {0}
 b6c:	69666564 	stmdbvs	r6!, {r2, r5, r6, r8, sl, sp, lr}^
 b70:	2064656e 	rsbcs	r6, r4, lr, ror #10
 b74:	65637845 	strbvs	r7, [r3, #-2117]!	; 0xfffff7bb
 b78:	6f697470 	svcvs	0x00697470
 b7c:	0d0a216e 	stfeqs	f2, [sl, #-440]	; 0xfffffe48
 b80:	666f5300 	strbtvs	r5, [pc], -r0, lsl #6
 b84:	72617774 	rsbvc	r7, r1, #116, 14	; 0x1d00000
 b88:	6e492065 	cdpvs	0, 4, cr2, cr9, cr5, {3}
 b8c:	72726574 	rsbsvc	r6, r2, #116, 10	; 0x1d000000
 b90:	20747075 	rsbscs	r7, r4, r5, ror r0
 b94:	626d754e 	rsbvs	r7, sp, #327155712	; 0x13800000
 b98:	203a7265 	eorscs	r7, sl, r5, ror #4
 b9c:	30000d0a 	andcc	r0, r0, sl, lsl #26
 ba0:	34333231 	ldrtcc	r3, [r3], #-561	; 0xfffffdcf
 ba4:	38373635 	ldmdacc	r7!, {r0, r2, r4, r5, r9, sl, ip, sp}
 ba8:	43424139 	movtmi	r4, #8505	; 0x2139
 bac:	00464544 	subeq	r4, r6, r4, asr #10
 bb0:	2d2d2d2d 	stccs	13, cr2, [sp, #-180]!	; 0xffffff4c
 bb4:	2d2d2d2d 	stccs	13, cr2, [sp, #-180]!	; 0xffffff4c
 bb8:	2d2d2d2d 	stccs	13, cr2, [sp, #-180]!	; 0xffffff4c
 bbc:	2d2d2d2d 	stccs	13, cr2, [sp, #-180]!	; 0xffffff4c
 bc0:	2d2d2d2d 	stccs	13, cr2, [sp, #-180]!	; 0xffffff4c
 bc4:	2d2d2d2d 	stccs	13, cr2, [sp, #-180]!	; 0xffffff4c
 bc8:	000d0a2d 	andeq	r0, sp, sp, lsr #20
 bcc:	0a007830 	beq	0x1ec94
 bd0:	2020000d 	eorcs	r0, r0, sp
 bd4:	0020203a 	eoreq	r2, r0, sl, lsr r0
